target datalayout = "e-m:e-p270:32:32-p271:32:32-p272:64:64-i64:64-i128:128-f80:128-n8:16:32:64-S128"
target triple = "x86_64-unknown-linux-gnu"

%"class.icu_75::TimeZoneGenericNames" = type { ptr, ptr }

; Function Attrs: mustprogress nounwind uwtable
define noundef zeroext i1 @_ZNK6icu_7520TimeZoneGenericNameseqERKS0_(ptr noundef nonnull align 8 dereferenceable(16) %this, ptr noundef nonnull align 8 dereferenceable(16) %other) unnamed_addr #0 align 2 {
entry:
  %this.addr = alloca ptr, align 8
  %other.addr = alloca ptr, align 8
  store ptr %this, ptr %this.addr, align 8
  store ptr %other, ptr %other.addr, align 8
  %this1 = load ptr, ptr %this.addr, align 8
  %fRef = getelementptr inbounds %"class.icu_75::TimeZoneGenericNames", ptr %this1, i32 0, i32 1
  %0 = load ptr, ptr %fRef, align 8
  %1 = load ptr, ptr %other.addr, align 8
  %fRef2 = getelementptr inbounds %"class.icu_75::TimeZoneGenericNames", ptr %1, i32 0, i32 1
  %2 = load ptr, ptr %fRef2, align 8
  %cmp = icmp eq ptr %0, %2
  ret i1 %cmp
}