; Function Attrs: mustprogress nofree norecurse nosync nounwind willreturn memory(argmem: read) uwtable
define noundef zeroext i1 @_ZNK6icu_7520TimeZoneGenericNameseqERKS0_(ptr nocapture noundef nonnull readonly align 8 dereferenceable(16) %this, ptr nocapture noundef nonnull readonly align 8 dereferenceable(16) %other) unnamed_addr #10 align 2 {
entry:
  %fRef = getelementptr inbounds i8, ptr %this, i64 8
  %0 = load ptr, ptr %fRef, align 8
  %fRef2 = getelementptr inbounds i8, ptr %other, i64 8
  %1 = load ptr, ptr %fRef2, align 8
  %cmp = icmp eq ptr %0, %1
  ret i1 %cmp
}